ARM GAS  /var/folders/18/7qft4_0j4_z7kpvgb54b529c0000gn/T//ccViMpA0.s 			page 1


   1              		.cpu cortex-m4
   2              		.eabi_attribute 27, 1
   3              		.eabi_attribute 28, 1
   4              		.eabi_attribute 20, 1
   5              		.eabi_attribute 21, 1
   6              		.eabi_attribute 23, 3
   7              		.eabi_attribute 24, 1
   8              		.eabi_attribute 25, 1
   9              		.eabi_attribute 26, 1
  10              		.eabi_attribute 30, 2
  11              		.eabi_attribute 34, 1
  12              		.eabi_attribute 18, 4
  13              		.file	"e_prox.c"
  14              		.text
  15              	.Ltext0:
  16              		.cfi_sections	.debug_frame
  17              		.section	.text.e_calibrate_ir,"ax",%progbits
  18              		.align	1
  19              		.p2align 4,,15
  20              		.global	e_calibrate_ir
  21              		.syntax unified
  22              		.thumb
  23              		.thumb_func
  24              		.fpu fpv4-sp-d16
  25              		.type	e_calibrate_ir, %function
  26              	e_calibrate_ir:
  27              	.LFB3:
  28              		.file 1 "../lib/e-puck2_main-processor/src/epuck1x/a_d/advance_ad_scan/e_prox.c"
  29              		.loc 1 5 0
  30              		.cfi_startproc
  31              		@ args = 0, pretend = 0, frame = 8
  32              		@ frame_needed = 0, uses_anonymous_args = 0
  33 0000 00B5     		push	{lr}
  34              		.cfi_def_cfa_offset 4
  35              		.cfi_offset 14, -4
  36 0002 074B     		ldr	r3, .L7
  37 0004 83B0     		sub	sp, sp, #12
  38              		.cfi_def_cfa_offset 16
  39              		.loc 1 5 0
  40 0006 1A68     		ldr	r2, [r3]
  41 0008 0192     		str	r2, [sp, #4]
  42              		.loc 1 6 0
  43 000a 019A     		ldr	r2, [sp, #4]
  44 000c 1B68     		ldr	r3, [r3]
  45 000e 9A42     		cmp	r2, r3
  46 0010 04D1     		bne	.L6
  47              		.loc 1 7 0
  48 0012 03B0     		add	sp, sp, #12
  49              		.cfi_remember_state
  50              		.cfi_def_cfa_offset 4
  51              		@ sp needed
  52 0014 5DF804EB 		ldr	lr, [sp], #4
  53              		.cfi_restore 14
  54              		.cfi_def_cfa_offset 0
  55              		.loc 1 6 0
  56 0018 FFF7FEBF 		b	calibrate_ir
  57              	.LVL0:
ARM GAS  /var/folders/18/7qft4_0j4_z7kpvgb54b529c0000gn/T//ccViMpA0.s 			page 2


  58              	.L6:
  59              		.cfi_restore_state
  60 001c FFF7FEFF 		bl	__stack_chk_fail
  61              	.LVL1:
  62              	.L8:
  63              		.align	2
  64              	.L7:
  65 0020 00000000 		.word	__stack_chk_guard
  66              		.cfi_endproc
  67              	.LFE3:
  68              		.size	e_calibrate_ir, .-e_calibrate_ir
  69              		.section	.text.e_get_prox,"ax",%progbits
  70              		.align	1
  71              		.p2align 4,,15
  72              		.global	e_get_prox
  73              		.syntax unified
  74              		.thumb
  75              		.thumb_func
  76              		.fpu fpv4-sp-d16
  77              		.type	e_get_prox, %function
  78              	e_get_prox:
  79              	.LFB4:
  80              		.loc 1 10 0
  81              		.cfi_startproc
  82              		@ args = 0, pretend = 0, frame = 8
  83              		@ frame_needed = 0, uses_anonymous_args = 0
  84              	.LVL2:
  85 0000 00B5     		push	{lr}
  86              		.cfi_def_cfa_offset 4
  87              		.cfi_offset 14, -4
  88 0002 0C4B     		ldr	r3, .L16
  89 0004 83B0     		sub	sp, sp, #12
  90              		.cfi_def_cfa_offset 16
  91              		.loc 1 10 0
  92 0006 1A68     		ldr	r2, [r3]
  93 0008 0192     		str	r2, [sp, #4]
  94              		.loc 1 11 0
  95 000a 0728     		cmp	r0, #7
  96              		.loc 1 16 0
  97 000c 019A     		ldr	r2, [sp, #4]
  98 000e 1B68     		ldr	r3, [r3]
  99              		.loc 1 11 0
 100 0010 06D9     		bls	.L15
 101              		.loc 1 16 0
 102 0012 9A42     		cmp	r2, r3
 103 0014 4FF00000 		mov	r0, #0
 104              	.LVL3:
 105 0018 09D1     		bne	.L14
 106 001a 03B0     		add	sp, sp, #12
 107              		.cfi_remember_state
 108              		.cfi_def_cfa_offset 4
 109              		@ sp needed
 110 001c 5DF804FB 		ldr	pc, [sp], #4
 111              	.LVL4:
 112              	.L15:
 113              		.cfi_restore_state
 114              		.loc 1 14 0
ARM GAS  /var/folders/18/7qft4_0j4_z7kpvgb54b529c0000gn/T//ccViMpA0.s 			page 3


 115 0020 9A42     		cmp	r2, r3
 116 0022 04D1     		bne	.L14
 117              		.loc 1 16 0
 118 0024 03B0     		add	sp, sp, #12
 119              		.cfi_remember_state
 120              		.cfi_def_cfa_offset 4
 121              		@ sp needed
 122 0026 5DF804EB 		ldr	lr, [sp], #4
 123              		.cfi_restore 14
 124              		.cfi_def_cfa_offset 0
 125              		.loc 1 14 0
 126 002a FFF7FEBF 		b	get_prox
 127              	.LVL5:
 128              	.L14:
 129              		.cfi_restore_state
 130              		.loc 1 16 0
 131 002e FFF7FEFF 		bl	__stack_chk_fail
 132              	.LVL6:
 133              	.L17:
 134 0032 00BF     		.align	2
 135              	.L16:
 136 0034 00000000 		.word	__stack_chk_guard
 137              		.cfi_endproc
 138              	.LFE4:
 139              		.size	e_get_prox, .-e_get_prox
 140              		.section	.text.e_get_calibrated_prox,"ax",%progbits
 141              		.align	1
 142              		.p2align 4,,15
 143              		.global	e_get_calibrated_prox
 144              		.syntax unified
 145              		.thumb
 146              		.thumb_func
 147              		.fpu fpv4-sp-d16
 148              		.type	e_get_calibrated_prox, %function
 149              	e_get_calibrated_prox:
 150              	.LFB5:
 151              		.loc 1 19 0
 152              		.cfi_startproc
 153              		@ args = 0, pretend = 0, frame = 8
 154              		@ frame_needed = 0, uses_anonymous_args = 0
 155              	.LVL7:
 156 0000 00B5     		push	{lr}
 157              		.cfi_def_cfa_offset 4
 158              		.cfi_offset 14, -4
 159 0002 0C4B     		ldr	r3, .L25
 160 0004 83B0     		sub	sp, sp, #12
 161              		.cfi_def_cfa_offset 16
 162              		.loc 1 19 0
 163 0006 1A68     		ldr	r2, [r3]
 164 0008 0192     		str	r2, [sp, #4]
 165              		.loc 1 20 0
 166 000a 0728     		cmp	r0, #7
 167              		.loc 1 25 0
 168 000c 019A     		ldr	r2, [sp, #4]
 169 000e 1B68     		ldr	r3, [r3]
 170              		.loc 1 20 0
 171 0010 06D9     		bls	.L24
ARM GAS  /var/folders/18/7qft4_0j4_z7kpvgb54b529c0000gn/T//ccViMpA0.s 			page 4


 172              		.loc 1 25 0
 173 0012 9A42     		cmp	r2, r3
 174 0014 4FF00000 		mov	r0, #0
 175              	.LVL8:
 176 0018 09D1     		bne	.L23
 177 001a 03B0     		add	sp, sp, #12
 178              		.cfi_remember_state
 179              		.cfi_def_cfa_offset 4
 180              		@ sp needed
 181 001c 5DF804FB 		ldr	pc, [sp], #4
 182              	.LVL9:
 183              	.L24:
 184              		.cfi_restore_state
 185              		.loc 1 23 0
 186 0020 9A42     		cmp	r2, r3
 187 0022 04D1     		bne	.L23
 188              		.loc 1 25 0
 189 0024 03B0     		add	sp, sp, #12
 190              		.cfi_remember_state
 191              		.cfi_def_cfa_offset 4
 192              		@ sp needed
 193 0026 5DF804EB 		ldr	lr, [sp], #4
 194              		.cfi_restore 14
 195              		.cfi_def_cfa_offset 0
 196              		.loc 1 23 0
 197 002a FFF7FEBF 		b	get_calibrated_prox
 198              	.LVL10:
 199              	.L23:
 200              		.cfi_restore_state
 201              		.loc 1 25 0
 202 002e FFF7FEFF 		bl	__stack_chk_fail
 203              	.LVL11:
 204              	.L26:
 205 0032 00BF     		.align	2
 206              	.L25:
 207 0034 00000000 		.word	__stack_chk_guard
 208              		.cfi_endproc
 209              	.LFE5:
 210              		.size	e_get_calibrated_prox, .-e_get_calibrated_prox
 211              		.section	.text.e_get_ambient_light,"ax",%progbits
 212              		.align	1
 213              		.p2align 4,,15
 214              		.global	e_get_ambient_light
 215              		.syntax unified
 216              		.thumb
 217              		.thumb_func
 218              		.fpu fpv4-sp-d16
 219              		.type	e_get_ambient_light, %function
 220              	e_get_ambient_light:
 221              	.LFB6:
 222              		.loc 1 28 0
 223              		.cfi_startproc
 224              		@ args = 0, pretend = 0, frame = 8
 225              		@ frame_needed = 0, uses_anonymous_args = 0
 226              	.LVL12:
 227 0000 00B5     		push	{lr}
 228              		.cfi_def_cfa_offset 4
ARM GAS  /var/folders/18/7qft4_0j4_z7kpvgb54b529c0000gn/T//ccViMpA0.s 			page 5


 229              		.cfi_offset 14, -4
 230 0002 0C4B     		ldr	r3, .L34
 231 0004 83B0     		sub	sp, sp, #12
 232              		.cfi_def_cfa_offset 16
 233              		.loc 1 28 0
 234 0006 1A68     		ldr	r2, [r3]
 235 0008 0192     		str	r2, [sp, #4]
 236              		.loc 1 29 0
 237 000a 0728     		cmp	r0, #7
 238              		.loc 1 34 0
 239 000c 019A     		ldr	r2, [sp, #4]
 240 000e 1B68     		ldr	r3, [r3]
 241              		.loc 1 29 0
 242 0010 06D9     		bls	.L33
 243              		.loc 1 34 0
 244 0012 9A42     		cmp	r2, r3
 245 0014 4FF00000 		mov	r0, #0
 246              	.LVL13:
 247 0018 09D1     		bne	.L32
 248 001a 03B0     		add	sp, sp, #12
 249              		.cfi_remember_state
 250              		.cfi_def_cfa_offset 4
 251              		@ sp needed
 252 001c 5DF804FB 		ldr	pc, [sp], #4
 253              	.LVL14:
 254              	.L33:
 255              		.cfi_restore_state
 256              		.loc 1 32 0
 257 0020 9A42     		cmp	r2, r3
 258 0022 04D1     		bne	.L32
 259              		.loc 1 34 0
 260 0024 03B0     		add	sp, sp, #12
 261              		.cfi_remember_state
 262              		.cfi_def_cfa_offset 4
 263              		@ sp needed
 264 0026 5DF804EB 		ldr	lr, [sp], #4
 265              		.cfi_restore 14
 266              		.cfi_def_cfa_offset 0
 267              		.loc 1 32 0
 268 002a FFF7FEBF 		b	get_ambient_light
 269              	.LVL15:
 270              	.L32:
 271              		.cfi_restore_state
 272              		.loc 1 34 0
 273 002e FFF7FEFF 		bl	__stack_chk_fail
 274              	.LVL16:
 275              	.L35:
 276 0032 00BF     		.align	2
 277              	.L34:
 278 0034 00000000 		.word	__stack_chk_guard
 279              		.cfi_endproc
 280              	.LFE6:
 281              		.size	e_get_ambient_light, .-e_get_ambient_light
 282              		.text
 283              	.Letext0:
 284              		.file 2 "/Applications/Eclipse_e-puck2.app/Contents/Eclipse_e-puck2/Tools/gcc-arm-none-eabi-7-2017
 285              		.file 3 "/Applications/Eclipse_e-puck2.app/Contents/Eclipse_e-puck2/Tools/gcc-arm-none-eabi-7-2017
ARM GAS  /var/folders/18/7qft4_0j4_z7kpvgb54b529c0000gn/T//ccViMpA0.s 			page 6


 286              		.file 4 "/Applications/Eclipse_e-puck2.app/Contents/Eclipse_e-puck2/Tools/gcc-arm-none-eabi-7-2017
 287              		.file 5 "/Applications/Eclipse_e-puck2.app/Contents/Eclipse_e-puck2/Tools/gcc-arm-none-eabi-7-2017
 288              		.file 6 "../lib/e-puck2_main-processor/src/epuck1x/../sensors/proximity.h"