ARM GAS  /var/folders/18/7qft4_0j4_z7kpvgb54b529c0000gn/T//cc4Wf93u.s 			page 1


   1              		.cpu cortex-m4
   2              		.eabi_attribute 27, 1
   3              		.eabi_attribute 28, 1
   4              		.eabi_attribute 20, 1
   5              		.eabi_attribute 21, 1
   6              		.eabi_attribute 23, 3
   7              		.eabi_attribute 24, 1
   8              		.eabi_attribute 25, 1
   9              		.eabi_attribute 26, 1
  10              		.eabi_attribute 30, 2
  11              		.eabi_attribute 34, 1
  12              		.eabi_attribute 18, 4
  13              		.file	"main.c"
  14              		.text
  15              	.Ltext0:
  16              		.cfi_sections	.debug_frame
  17              		.global	__aeabi_i2d
  18              		.global	__aeabi_dmul
  19              		.global	__aeabi_ddiv
  20              		.global	__aeabi_dcmplt
  21              		.section	.text.turn,"ax",%progbits
  22              		.align	1
  23              		.p2align 4,,15
  24              		.global	turn
  25              		.syntax unified
  26              		.thumb
  27              		.thumb_func
  28              		.fpu fpv4-sp-d16
  29              		.type	turn, %function
  30              	turn:
  31              	.LFB263:
  32              		.file 1 "main.c"
  33              		.loc 1 436 0
  34              		.cfi_startproc
  35              		@ args = 0, pretend = 0, frame = 8
  36              		@ frame_needed = 0, uses_anonymous_args = 0
  37              	.LVL0:
  38 0000 2DE9F04F 		push	{r4, r5, r6, r7, r8, r9, r10, fp, lr}
  39              		.cfi_def_cfa_offset 36
  40              		.cfi_offset 4, -36
  41              		.cfi_offset 5, -32
  42              		.cfi_offset 6, -28
  43              		.cfi_offset 7, -24
  44              		.cfi_offset 8, -20
  45              		.cfi_offset 9, -16
  46              		.cfi_offset 10, -12
  47              		.cfi_offset 11, -8
  48              		.cfi_offset 14, -4
  49 0004 DFF894B0 		ldr	fp, .L9+12
  50              		.loc 1 441 0
  51 0008 DFF894A0 		ldr	r10, .L9+16
  52              		.loc 1 436 0
  53 000c DBF80030 		ldr	r3, [fp]
  54 0010 83B0     		sub	sp, sp, #12
  55              		.cfi_def_cfa_offset 48
  56              		.loc 1 437 0
  57 0012 0020     		movs	r0, #0
ARM GAS  /var/folders/18/7qft4_0j4_z7kpvgb54b529c0000gn/T//cc4Wf93u.s 			page 2


  58              		.loc 1 436 0
  59 0014 0193     		str	r3, [sp, #4]
  60 0016 59EC108B 		vmov	r8, r9, d0
  61              		.loc 1 437 0
  62 001a FFF7FEFF 		bl	left_motor_set_pos
  63              	.LVL1:
  64              		.loc 1 438 0
  65 001e 0020     		movs	r0, #0
  66 0020 FFF7FEFF 		bl	right_motor_set_pos
  67              	.LVL2:
  68              		.loc 1 439 0
  69 0024 1BA7     		adr	r7, .L9+4
  70 0026 D7E90067 		ldrd	r6, [r7]
  71 002a 06E0     		b	.L2
  72              	.L3:
  73              		.loc 1 440 0
  74 002c 4FF49670 		mov	r0, #300
  75 0030 FFF7FEFF 		bl	right_motor_set_speed
  76              	.LVL3:
  77              		.loc 1 441 0
  78 0034 5046     		mov	r0, r10
  79 0036 FFF7FEFF 		bl	left_motor_set_speed
  80              	.LVL4:
  81              	.L2:
  82              		.loc 1 439 0
  83 003a FFF7FEFF 		bl	left_motor_get_pos
  84              	.LVL5:
  85 003e FFF7FEFF 		bl	__aeabi_i2d
  86              	.LVL6:
  87 0042 3246     		mov	r2, r6
  88 0044 0446     		mov	r4, r0
  89 0046 0D46     		mov	r5, r1
  90 0048 3B46     		mov	r3, r7
  91 004a 4046     		mov	r0, r8
  92 004c 4946     		mov	r1, r9
  93 004e FFF7FEFF 		bl	__aeabi_dmul
  94              	.LVL7:
  95 0052 0022     		movs	r2, #0
  96 0054 0E4B     		ldr	r3, .L9
  97 0056 FFF7FEFF 		bl	__aeabi_ddiv
  98              	.LVL8:
  99 005a 0246     		mov	r2, r0
 100 005c 0B46     		mov	r3, r1
 101 005e 2046     		mov	r0, r4
 102 0060 2946     		mov	r1, r5
 103 0062 FFF7FEFF 		bl	__aeabi_dcmplt
 104              	.LVL9:
 105 0066 0446     		mov	r4, r0
 106 0068 0028     		cmp	r0, #0
 107 006a DFD1     		bne	.L3
 108              		.loc 1 443 0
 109 006c FFF7FEFF 		bl	right_motor_set_speed
 110              	.LVL10:
 111              		.loc 1 444 0
 112 0070 019A     		ldr	r2, [sp, #4]
 113 0072 DBF80030 		ldr	r3, [fp]
 114 0076 9A42     		cmp	r2, r3
ARM GAS  /var/folders/18/7qft4_0j4_z7kpvgb54b529c0000gn/T//cc4Wf93u.s 			page 3


 115 0078 05D1     		bne	.L8
 116 007a 2046     		mov	r0, r4
 117              		.loc 1 445 0
 118 007c 03B0     		add	sp, sp, #12
 119              		.cfi_remember_state
 120              		.cfi_def_cfa_offset 36
 121              		@ sp needed
 122 007e BDE8F04F 		pop	{r4, r5, r6, r7, r8, r9, r10, fp, lr}
 123              		.cfi_restore 14
 124              		.cfi_restore 11
 125              		.cfi_restore 10
 126              		.cfi_restore 9
 127              		.cfi_restore 8
 128              		.cfi_restore 7
 129              		.cfi_restore 6
 130              		.cfi_restore 5
 131              		.cfi_restore 4
 132              		.cfi_def_cfa_offset 0
 133              	.LVL11:
 134              		.loc 1 444 0
 135 0082 FFF7FEBF 		b	left_motor_set_speed
 136              	.LVL12:
 137              	.L8:
 138              		.cfi_restore_state
 139 0086 FFF7FEFF 		bl	__stack_chk_fail
 140              	.LVL13:
 141              	.L10:
 142 008a 00BFAFF3 		.align	3
 142      0080
 143              	.L9:
 144 0090 00807640 		.word	1081507840
 145 0094 00000060 		.word	1610612736
 146 0098 66662F40 		.word	1076848230
 147 009c 00000000 		.word	__stack_chk_guard
 148 00a0 D4FEFFFF 		.word	-300
 149              		.cfi_endproc
 150              	.LFE263:
 151              		.size	turn, .-turn
 152              		.global	__aeabi_f2d
 153              		.global	__aeabi_dadd
 154              		.section	.text.incidence_angle,"ax",%progbits
 155              		.align	1
 156              		.p2align 4,,15
 157              		.global	incidence_angle
 158              		.syntax unified
 159              		.thumb
 160              		.thumb_func
 161              		.fpu fpv4-sp-d16
 162              		.type	incidence_angle, %function
 163              	incidence_angle:
 164              	.LFB264:
 165              		.loc 1 447 0
 166              		.cfi_startproc
 167              		@ args = 0, pretend = 0, frame = 8
 168              		@ frame_needed = 0, uses_anonymous_args = 0
 169 0000 2DE9F043 		push	{r4, r5, r6, r7, r8, r9, lr}
 170              		.cfi_def_cfa_offset 28
ARM GAS  /var/folders/18/7qft4_0j4_z7kpvgb54b529c0000gn/T//cc4Wf93u.s 			page 4


 171              		.cfi_offset 4, -28
 172              		.cfi_offset 5, -24
 173              		.cfi_offset 6, -20
 174              		.cfi_offset 7, -16
 175              		.cfi_offset 8, -12
 176              		.cfi_offset 9, -8
 177              		.cfi_offset 14, -4
 178 0004 2DED028B 		vpush.64	{d8}
 179              		.cfi_def_cfa_offset 36
 180              		.cfi_offset 80, -36
 181              		.cfi_offset 81, -32
 182 0008 DFF8E490 		ldr	r9, .L19+4
 183              	.LBB6:
 184              		.loc 1 452 0
 185 000c 9FED378A 		vldr.32	s16, .L19
 186              	.LBE6:
 187              		.loc 1 447 0
 188 0010 D9F80030 		ldr	r3, [r9]
 189 0014 83B0     		sub	sp, sp, #12
 190              		.cfi_def_cfa_offset 48
 191              		.loc 1 447 0
 192 0016 4FF00008 		mov	r8, #0
 193 001a 0193     		str	r3, [sp, #4]
 194              	.LVL14:
 195              		.loc 1 449 0
 196 001c 0026     		movs	r6, #0
 197 001e 0027     		movs	r7, #0
 198              	.LBB7:
 199              		.loc 1 450 0
 200 0020 4446     		mov	r4, r8
 201              	.LBE7:
 202              		.loc 1 448 0
 203 0022 4546     		mov	r5, r8
 204              	.LVL15:
 205              	.L12:
 206              	.LBB8:
 207              		.loc 1 451 0 discriminator 3
 208 0024 2046     		mov	r0, r4
 209 0026 FFF7FEFF 		bl	get_prox
 210              	.LVL16:
 211 002a 0544     		add	r5, r5, r0
 212              	.LVL17:
 213              		.loc 1 452 0 discriminator 3
 214 002c 2046     		mov	r0, r4
 215 002e FFF7FEFF 		bl	get_prox
 216              	.LVL18:
 217 0032 07EE908A 		vmov	s15, r8	@ int
 218 0036 07EE100A 		vmov	s14, r0	@ int
 219 003a F8EEE77A 		vcvt.f32.s32	s15, s15
 220 003e B8EEC77A 		vcvt.f32.s32	s14, s14
 221 0042 77EE887A 		vadd.f32	s15, s15, s16
 222              		.loc 1 450 0 discriminator 3
 223 0046 0134     		adds	r4, r4, #1
 224              	.LVL19:
 225              		.loc 1 452 0 discriminator 3
 226 0048 67EE877A 		vmul.f32	s15, s15, s14
 227 004c 08F12D08 		add	r8, r8, #45
ARM GAS  /var/folders/18/7qft4_0j4_z7kpvgb54b529c0000gn/T//cc4Wf93u.s 			page 5


 228 0050 17EE900A 		vmov	r0, s15
 229 0054 FFF7FEFF 		bl	__aeabi_f2d
 230              	.LVL20:
 231 0058 0246     		mov	r2, r0
 232 005a 0B46     		mov	r3, r1
 233 005c 3046     		mov	r0, r6
 234 005e 3946     		mov	r1, r7
 235 0060 FFF7FEFF 		bl	__aeabi_dadd
 236              	.LVL21:
 237              		.loc 1 450 0 discriminator 3
 238 0064 042C     		cmp	r4, #4
 239              		.loc 1 452 0 discriminator 3
 240 0066 0646     		mov	r6, r0
 241              	.LVL22:
 242 0068 0F46     		mov	r7, r1
 243              	.LVL23:
 244              		.loc 1 450 0 discriminator 3
 245 006a DBD1     		bne	.L12
 246              	.LBE8:
 247              	.LBB9:
 248              		.loc 1 456 0
 249 006c 9FED1F8A 		vldr.32	s16, .L19
 250              	.LBE9:
 251              	.LBB10:
 252 0070 6FF08608 		mvn	r8, #134
 253              	.LVL24:
 254              	.L13:
 255              	.LBE10:
 256              	.LBB11:
 257              		.loc 1 455 0 discriminator 3
 258 0074 2046     		mov	r0, r4
 259 0076 FFF7FEFF 		bl	get_prox
 260              	.LVL25:
 261 007a 0544     		add	r5, r5, r0
 262              	.LVL26:
 263              		.loc 1 456 0 discriminator 3
 264 007c 2046     		mov	r0, r4
 265 007e FFF7FEFF 		bl	get_prox
 266              	.LVL27:
 267 0082 07EE908A 		vmov	s15, r8	@ int
 268 0086 07EE100A 		vmov	s14, r0	@ int
 269 008a F8EEE77A 		vcvt.f32.s32	s15, s15
 270 008e B8EEC77A 		vcvt.f32.s32	s14, s14
 271 0092 77EEC87A 		vsub.f32	s15, s15, s16
 272              		.loc 1 454 0 discriminator 3
 273 0096 0134     		adds	r4, r4, #1
 274              	.LVL28:
 275              		.loc 1 456 0 discriminator 3
 276 0098 67EE877A 		vmul.f32	s15, s15, s14
 277 009c 08F12D08 		add	r8, r8, #45
 278 00a0 17EE900A 		vmov	r0, s15
 279 00a4 FFF7FEFF 		bl	__aeabi_f2d
 280              	.LVL29:
 281 00a8 0246     		mov	r2, r0
 282 00aa 0B46     		mov	r3, r1
 283 00ac 3046     		mov	r0, r6
 284 00ae 3946     		mov	r1, r7
ARM GAS  /var/folders/18/7qft4_0j4_z7kpvgb54b529c0000gn/T//cc4Wf93u.s 			page 6


 285 00b0 FFF7FEFF 		bl	__aeabi_dadd
 286              	.LVL30:
 287              		.loc 1 454 0 discriminator 3
 288 00b4 082C     		cmp	r4, #8
 289              		.loc 1 456 0 discriminator 3
 290 00b6 0646     		mov	r6, r0
 291              	.LVL31:
 292 00b8 0F46     		mov	r7, r1
 293              	.LVL32:
 294              		.loc 1 454 0 discriminator 3
 295 00ba DBD1     		bne	.L13
 296              	.LBE11:
 297              		.loc 1 458 0
 298 00bc 2846     		mov	r0, r5
 299 00be FFF7FEFF 		bl	__aeabi_i2d
 300              	.LVL33:
 301 00c2 0246     		mov	r2, r0
 302 00c4 0B46     		mov	r3, r1
 303 00c6 3046     		mov	r0, r6
 304 00c8 3946     		mov	r1, r7
 305 00ca FFF7FEFF 		bl	__aeabi_ddiv
 306              	.LVL34:
 307              		.loc 1 459 0
 308 00ce 019A     		ldr	r2, [sp, #4]
 309 00d0 D9F80030 		ldr	r3, [r9]
 310 00d4 9A42     		cmp	r2, r3
 311 00d6 41EC100B 		vmov	d0, r0, r1
 312 00da 04D1     		bne	.L18
 313 00dc 03B0     		add	sp, sp, #12
 314              		.cfi_remember_state
 315              		.cfi_def_cfa_offset 36
 316              		@ sp needed
 317 00de BDEC028B 		vldm	sp!, {d8}
 318              		.cfi_restore 80
 319              		.cfi_restore 81
 320              		.cfi_def_cfa_offset 28
 321 00e2 BDE8F083 		pop	{r4, r5, r6, r7, r8, r9, pc}
 322              	.LVL35:
 323              	.L18:
 324              		.cfi_restore_state
 325 00e6 FFF7FEFF 		bl	__stack_chk_fail
 326              	.LVL36:
 327              	.L20:
 328 00ea 00BF     		.align	2
 329              	.L19:
 330 00ec 0000B441 		.word	1102315520
 331 00f0 00000000 		.word	__stack_chk_guard
 332              		.cfi_endproc
 333              	.LFE264:
 334              		.size	incidence_angle, .-incidence_angle
 335              		.global	__aeabi_dsub
 336              		.section	.text.bouncing,"ax",%progbits
 337              		.align	1
 338              		.p2align 4,,15
 339              		.global	bouncing
 340              		.syntax unified
 341              		.thumb
ARM GAS  /var/folders/18/7qft4_0j4_z7kpvgb54b529c0000gn/T//cc4Wf93u.s 			page 7


 342              		.thumb_func
 343              		.fpu fpv4-sp-d16
 344              		.type	bouncing, %function
 345              	bouncing:
 346              	.LFB265:
 347              		.loc 1 461 0
 348              		.cfi_startproc
 349              		@ args = 0, pretend = 0, frame = 8
 350              		@ frame_needed = 0, uses_anonymous_args = 0
 351              	.LVL37:
 352 0000 30B5     		push	{r4, r5, lr}
 353              		.cfi_def_cfa_offset 12
 354              		.cfi_offset 4, -12
 355              		.cfi_offset 5, -8
 356              		.cfi_offset 14, -4
 357 0002 104B     		ldr	r3, .L26
 358 0004 83B0     		sub	sp, sp, #12
 359              		.cfi_def_cfa_offset 24
 360              		.loc 1 461 0
 361 0006 1A68     		ldr	r2, [r3]
 362 0008 0192     		str	r2, [sp, #4]
 363              		.loc 1 462 0
 364 000a 0199     		ldr	r1, [sp, #4]
 365 000c 1B68     		ldr	r3, [r3]
 366 000e 9942     		cmp	r1, r3
 367 0010 15D1     		bne	.L25
 368 0012 55EC104B 		vmov	r4, r5, d0
 369 0016 10EE102A 		vmov	r2, s0	@ int
 370 001a 2B46     		mov	r3, r5
 371 001c 2046     		mov	r0, r4
 372 001e 2946     		mov	r1, r5
 373 0020 FFF7FEFF 		bl	__aeabi_dadd
 374              	.LVL38:
 375 0024 0246     		mov	r2, r0
 376 0026 0B46     		mov	r3, r1
 377 0028 0020     		movs	r0, #0
 378 002a 0749     		ldr	r1, .L26+4
 379 002c FFF7FEFF 		bl	__aeabi_dsub
 380              	.LVL39:
 381 0030 41EC100B 		vmov	d0, r0, r1
 382              		.loc 1 463 0
 383 0034 03B0     		add	sp, sp, #12
 384              		.cfi_remember_state
 385              		.cfi_def_cfa_offset 12
 386              		@ sp needed
 387 0036 BDE83040 		pop	{r4, r5, lr}
 388              		.cfi_restore 14
 389              		.cfi_restore 5
 390              		.cfi_restore 4
 391              		.cfi_def_cfa_offset 0
 392              	.LVL40:
 393              		.loc 1 462 0
 394 003a FFF7FEBF 		b	turn
 395              	.LVL41:
 396              	.L25:
 397              		.cfi_restore_state
 398 003e FFF7FEFF 		bl	__stack_chk_fail
ARM GAS  /var/folders/18/7qft4_0j4_z7kpvgb54b529c0000gn/T//cc4Wf93u.s 			page 8


 399              	.LVL42:
 400              	.L27:
 401 0042 00BF     		.align	2
 402              	.L26:
 403 0044 00000000 		.word	__stack_chk_guard
 404 0048 00806640 		.word	1080459264
 405              		.cfi_endproc
 406              	.LFE265:
 407              		.size	bouncing, .-bouncing
 408              		.section	.text.startup.main,"ax",%progbits
 409              		.align	1
 410              		.p2align 4,,15
 411              		.global	main
 412              		.syntax unified
 413              		.thumb
 414              		.thumb_func
 415              		.fpu fpv4-sp-d16
 416              		.type	main, %function
 417              	main:
 418              	.LFB266:
 419              		.loc 1 468 0
 420              		.cfi_startproc
 421              		@ Volatile: function does not return.
 422              		@ args = 0, pretend = 0, frame = 8
 423              		@ frame_needed = 0, uses_anonymous_args = 0
 424 0000 00B5     		push	{lr}
 425              		.cfi_def_cfa_offset 4
 426              		.cfi_offset 14, -4
 427 0002 2F4B     		ldr	r3, .L32+8
 428 0004 83B0     		sub	sp, sp, #12
 429              		.cfi_def_cfa_offset 16
 430              		.loc 1 468 0
 431 0006 1B68     		ldr	r3, [r3]
 432 0008 0193     		str	r3, [sp, #4]
 433              		.loc 1 470 0
 434 000a FFF7FEFF 		bl	halInit
 435              	.LVL43:
 436              		.loc 1 471 0
 437 000e FFF7FEFF 		bl	chSysInit
 438              	.LVL44:
 439              		.loc 1 472 0
 440 0012 FFF7FEFF 		bl	mpu_init
 441              	.LVL45:
 442              		.loc 1 475 0
 443 0016 2B4A     		ldr	r2, .L32+12
 444 0018 2B49     		ldr	r1, .L32+16
 445 001a 2C48     		ldr	r0, .L32+20
 446 001c FFF7FEFF 		bl	messagebus_init
 447              	.LVL46:
 448              		.loc 1 477 0
 449 0020 0022     		movs	r2, #0
 450 0022 1146     		mov	r1, r2
 451 0024 2A48     		ldr	r0, .L32+24
 452 0026 FFF7FEFF 		bl	parameter_namespace_declare
 453              	.LVL47:
 454              		.loc 1 480 0
 455 002a FFF7FEFF 		bl	clear_leds
ARM GAS  /var/folders/18/7qft4_0j4_z7kpvgb54b529c0000gn/T//cc4Wf93u.s 			page 9


 456              	.LVL48:
 457              		.loc 1 481 0
 458 002e 0020     		movs	r0, #0
 459 0030 FFF7FEFF 		bl	set_body_led
 460              	.LVL49:
 461              		.loc 1 482 0
 462 0034 0020     		movs	r0, #0
 463 0036 FFF7FEFF 		bl	set_front_led
 464              	.LVL50:
 465              		.loc 1 483 0
 466 003a FFF7FEFF 		bl	usb_start
 467              	.LVL51:
 468              		.loc 1 485 0
 469 003e FFF7FEFF 		bl	po8030_start
 470              	.LVL52:
 471              		.loc 1 486 0
 472 0042 FFF7FEFF 		bl	motors_init
 473              	.LVL53:
 474              		.loc 1 487 0
 475 0046 FFF7FEFF 		bl	proximity_start
 476              	.LVL54:
 477              		.loc 1 488 0
 478 004a FFF7FEFF 		bl	battery_level_start
 479              	.LVL55:
 480              		.loc 1 489 0
 481 004e FFF7FEFF 		bl	dac_start
 482              	.LVL56:
 483              		.loc 1 490 0
 484 0052 FFF7FEFF 		bl	exti_start
 485              	.LVL57:
 486              		.loc 1 491 0
 487 0056 FFF7FEFF 		bl	imu_start
 488              	.LVL58:
 489              		.loc 1 492 0
 490 005a FFF7FEFF 		bl	ir_remote_start
 491              	.LVL59:
 492              		.loc 1 493 0
 493 005e FFF7FEFF 		bl	spi_comm_start
 494              	.LVL60:
 495              		.loc 1 494 0
 496 0062 FFF7FEFF 		bl	VL53L0X_start
 497              	.LVL61:
 498              	.LBB12:
 499              	.LBB13:
 500              		.loc 1 70 0
 501 0066 1B49     		ldr	r1, .L32+28
 502 0068 1B48     		ldr	r0, .L32+32
 503 006a FFF7FEFF 		bl	sdStart
 504              	.LVL62:
 505              	.LBE13:
 506              	.LBE12:
 507              		.loc 1 496 0
 508 006e 0020     		movs	r0, #0
 509 0070 FFF7FEFF 		bl	mic_start
 510              	.LVL63:
 511              		.loc 1 497 0
 512 0074 FFF7FEFF 		bl	sdio_start
ARM GAS  /var/folders/18/7qft4_0j4_z7kpvgb54b529c0000gn/T//cc4Wf93u.s 			page 10


 513              	.LVL64:
 514              		.loc 1 498 0
 515 0078 FFF7FEFF 		bl	playMelodyStart
 516              	.LVL65:
 517              		.loc 1 499 0
 518 007c FFF7FEFF 		bl	playSoundFileStart
 519              	.LVL66:
 520              		.loc 1 502 0
 521 0080 164A     		ldr	r2, .L32+36
 522 0082 1349     		ldr	r1, .L32+24
 523 0084 1648     		ldr	r0, .L32+40
 524 0086 FFF7FEFF 		bl	parameter_namespace_declare
 525              	.LVL67:
 526              		.loc 1 503 0
 527 008a 1548     		ldr	r0, .L32+40
 528 008c FFF7FEFF 		bl	aseba_declare_parameters
 529              	.LVL68:
 530              	.LBB14:
 531              	.LBB15:
 532              		.loc 1 58 0
 533 0090 1449     		ldr	r1, .L32+44
 534 0092 0F48     		ldr	r0, .L32+24
 535 0094 FFF7FEFF 		bl	config_load
 536              	.LVL69:
 537              	.LBE15:
 538              	.LBE14:
 539              		.loc 1 510 0
 540 0098 FFF7FEFF 		bl	aseba_vm_init
 541              	.LVL70:
 542              		.loc 1 511 0
 543 009c 1248     		ldr	r0, .L32+48
 544 009e FFF7FEFF 		bl	aseba_can_start
 545              	.LVL71:
 546              		.loc 1 515 0
 547 00a2 FFF7FEFF 		bl	calibrate_ir
 548              	.LVL72:
 549              		.loc 1 517 0
 550 00a6 9FED040B 		vldr.64	d0, .L32
 551 00aa FFF7FEFF 		bl	turn
 552              	.LVL73:
 553              	.L29:
 554              		.loc 1 523 0 discriminator 1
 555 00ae 4FF47A70 		mov	r0, #1000
 556 00b2 FFF7FEFF 		bl	chThdSleep
 557              	.LVL74:
 558 00b6 FAE7     		b	.L29
 559              	.L33:
 560              		.align	3
 561              	.L32:
 562 00b8 00000000 		.word	0
 563 00bc 00806640 		.word	1080459264
 564 00c0 00000000 		.word	__stack_chk_guard
 565 00c4 00000000 		.word	.LANCHOR0
 566 00c8 00000000 		.word	.LANCHOR1
 567 00cc 00000000 		.word	.LANCHOR2
 568 00d0 00000000 		.word	.LANCHOR3
 569 00d4 00000000 		.word	.LANCHOR4
ARM GAS  /var/folders/18/7qft4_0j4_z7kpvgb54b529c0000gn/T//cc4Wf93u.s 			page 11


 570 00d8 00000000 		.word	SD3
 571 00dc 00000000 		.word	.LC0
 572 00e0 00000000 		.word	.LANCHOR5
 573 00e4 00000000 		.word	_config_start
 574 00e8 00000000 		.word	vmState
 575              		.cfi_endproc
 576              	.LFE266:
 577              		.size	main, .-main
 578              		.section	.text.__stack_chk_fail,"ax",%progbits
 579              		.align	1
 580              		.p2align 4,,15
 581              		.global	__stack_chk_fail
 582              		.syntax unified
 583              		.thumb
 584              		.thumb_func
 585              		.fpu fpv4-sp-d16
 586              		.type	__stack_chk_fail, %function
 587              	__stack_chk_fail:
 588              	.LFB267:
 589              		.loc 1 531 0
 590              		.cfi_startproc
 591              		@ args = 0, pretend = 0, frame = 8
 592              		@ frame_needed = 0, uses_anonymous_args = 0
 593 0000 00B5     		push	{lr}
 594              		.cfi_def_cfa_offset 4
 595              		.cfi_offset 14, -4
 596 0002 084B     		ldr	r3, .L39
 597 0004 83B0     		sub	sp, sp, #12
 598              		.cfi_def_cfa_offset 16
 599              		.loc 1 531 0
 600 0006 1A68     		ldr	r2, [r3]
 601 0008 0192     		str	r2, [sp, #4]
 602              		.loc 1 532 0
 603 000a 019A     		ldr	r2, [sp, #4]
 604 000c 1B68     		ldr	r3, [r3]
 605 000e 9A42     		cmp	r2, r3
 606 0010 05D1     		bne	.L38
 607 0012 0548     		ldr	r0, .L39+4
 608              		.loc 1 533 0
 609 0014 03B0     		add	sp, sp, #12
 610              		.cfi_remember_state
 611              		.cfi_def_cfa_offset 4
 612              		@ sp needed
 613 0016 5DF804EB 		ldr	lr, [sp], #4
 614              		.cfi_restore 14
 615              		.cfi_def_cfa_offset 0
 616              		.loc 1 532 0
 617 001a FFF7FEBF 		b	chSysHalt
 618              	.LVL75:
 619              	.L38:
 620              		.cfi_restore_state
 621 001e FFF7FEFF 		bl	__stack_chk_fail
 622              	.LVL76:
 623              	.L40:
 624 0022 00BF     		.align	2
 625              	.L39:
 626 0024 00000000 		.word	__stack_chk_guard
ARM GAS  /var/folders/18/7qft4_0j4_z7kpvgb54b529c0000gn/T//cc4Wf93u.s 			page 12


 627 0028 00000000 		.word	.LC1
 628              		.cfi_endproc
 629              	.LFE267:
 630              		.size	__stack_chk_fail, .-__stack_chk_fail
 631              		.global	__stack_chk_guard
 632              		.global	aseba_ns
 633              		.global	parameter_root
 634              		.global	bus_condvar
 635              		.global	bus_lock
 636              		.global	bus
 637              		.section	.bss.aseba_ns,"aw",%nobits
 638              		.align	2
 639              		.set	.LANCHOR5,. + 0
 640              		.type	aseba_ns, %object
 641              		.size	aseba_ns, 24
 642              	aseba_ns:
 643 0000 00000000 		.space	24
 643      00000000 
 643      00000000 
 643      00000000 
 643      00000000 
 644              		.section	.bss.bus,"aw",%nobits
 645              		.align	2
 646              		.set	.LANCHOR2,. + 0
 647              		.type	bus, %object
 648              		.size	bus, 12
 649              	bus:
 650 0000 00000000 		.space	12
 650      00000000 
 650      00000000 
 651              		.section	.bss.parameter_root,"aw",%nobits
 652              		.align	2
 653              		.set	.LANCHOR3,. + 0
 654              		.type	parameter_root, %object
 655              		.size	parameter_root, 24
 656              	parameter_root:
 657 0000 00000000 		.space	24
 657      00000000 
 657      00000000 
 657      00000000 
 657      00000000 
 658              		.section	.data.__stack_chk_guard,"aw",%progbits
 659              		.align	2
 660              		.type	__stack_chk_guard, %object
 661              		.size	__stack_chk_guard, 4
 662              	__stack_chk_guard:
 663 0000 96E3DEE2 		.word	-488709226
 664              		.section	.data.bus_condvar,"aw",%progbits
 665              		.align	2
 666              		.set	.LANCHOR0,. + 0
 667              		.type	bus_condvar, %object
 668              		.size	bus_condvar, 8
 669              	bus_condvar:
 670 0000 00000000 		.word	bus_condvar
 671 0004 00000000 		.word	bus_condvar
 672              		.section	.data.bus_lock,"aw",%progbits
 673              		.align	2
ARM GAS  /var/folders/18/7qft4_0j4_z7kpvgb54b529c0000gn/T//cc4Wf93u.s 			page 13


 674              		.set	.LANCHOR1,. + 0
 675              		.type	bus_lock, %object
 676              		.size	bus_lock, 20
 677              	bus_lock:
 678 0000 00000000 		.word	bus_lock
 679 0004 00000000 		.word	bus_lock
 680 0008 00000000 		.word	0
 681 000c 00000000 		.word	0
 682 0010 00000000 		.word	0
 683              		.section	.data.ser_cfg.14506,"aw",%progbits
 684              		.align	2
 685              		.set	.LANCHOR4,. + 0
 686              		.type	ser_cfg.14506, %object
 687              		.size	ser_cfg.14506, 12
 688              	ser_cfg.14506:
 689 0000 00C20100 		.word	115200
 690 0004 0000     		.short	0
 691 0006 0000     		.short	0
 692 0008 0000     		.short	0
 693 000a 0000     		.space	2
 694              		.section	.rodata.__stack_chk_fail.str1.4,"aMS",%progbits,1
 695              		.align	2
 696              	.LC1:
 697 0000 53746163 		.ascii	"Stack smashing detected\000"
 697      6B20736D 
 697      61736869 
 697      6E672064 
 697      65746563 
 698              		.section	.rodata.main.str1.4,"aMS",%progbits,1
 699              		.align	2
 700              	.LC0:
 701 0000 61736562 		.ascii	"aseba\000"
 701      6100
 702              		.text
 703              	.Letext0:
 704              		.file 2 "/Applications/Eclipse_e-puck2.app/Contents/Eclipse_e-puck2/Tools/gcc-arm-none-eabi-7-2017
 705              		.file 3 "/Applications/Eclipse_e-puck2.app/Contents/Eclipse_e-puck2/Tools/gcc-arm-none-eabi-7-2017
 706              		.file 4 "/Applications/Eclipse_e-puck2.app/Contents/Eclipse_e-puck2/Tools/gcc-arm-none-eabi-7-2017
 707              		.file 5 "/Applications/Eclipse_e-puck2.app/Contents/Eclipse_e-puck2/Tools/gcc-arm-none-eabi-7-2017
 708              		.file 6 "/Applications/Eclipse_e-puck2.app/Contents/Eclipse_e-puck2/Tools/gcc-arm-none-eabi-7-2017
 709              		.file 7 "/Applications/Eclipse_e-puck2.app/Contents/Eclipse_e-puck2/Tools/gcc-arm-none-eabi-7-2017
 710              		.file 8 "/Applications/Eclipse_e-puck2.app/Contents/Eclipse_e-puck2/Tools/gcc-arm-none-eabi-7-2017
 711              		.file 9 "/Applications/Eclipse_e-puck2.app/Contents/Eclipse_e-puck2/Tools/gcc-arm-none-eabi-7-2017
 712              		.file 10 "../lib/e-puck2_main-processor/ChibiOS//os/rt/ports/ARMCMx/compilers/GCC/chtypes.h"
 713              		.file 11 "../lib/e-puck2_main-processor/ChibiOS//os/rt/include/chsystypes.h"
 714              		.file 12 "../lib/e-puck2_main-processor/ChibiOS//os/rt/include/chschd.h"
 715              		.file 13 "../lib/e-puck2_main-processor/ChibiOS//os/ext/CMSIS/include/core_cm4.h"
 716              		.file 14 "../lib/e-puck2_main-processor/ChibiOS//os/ext/CMSIS/ST/system_stm32f4xx.h"
 717              		.file 15 "../lib/e-puck2_main-processor/ChibiOS//os/ext/CMSIS/ST/stm32f407xx.h"
 718              		.file 16 "../lib/e-puck2_main-processor/ChibiOS//os/rt/ports/ARMCMx/chcore.h"
 719              		.file 17 "../lib/e-puck2_main-processor/ChibiOS//os/rt/ports/ARMCMx/chcore_v7m.h"
 720              		.file 18 "../lib/e-puck2_main-processor/ChibiOS//os/rt/include/chdebug.h"
 721              		.file 19 "../lib/e-puck2_main-processor/ChibiOS//os/rt/include/chtm.h"
 722              		.file 20 "../lib/e-puck2_main-processor/ChibiOS//os/rt/include/chstats.h"
 723              		.file 21 "../lib/e-puck2_main-processor/ChibiOS//os/rt/include/chsem.h"
 724              		.file 22 "../lib/e-puck2_main-processor/ChibiOS//os/rt/include/chmtx.h"
 725              		.file 23 "../lib/e-puck2_main-processor/ChibiOS//os/rt/include/chregistry.h"
ARM GAS  /var/folders/18/7qft4_0j4_z7kpvgb54b529c0000gn/T//cc4Wf93u.s 			page 14


 726              		.file 24 "../lib/e-puck2_main-processor/ChibiOS//os/rt/include/chcond.h"
 727              		.file 25 "../lib/e-puck2_main-processor/ChibiOS//os/rt/include/chevents.h"
 728              		.file 26 "../lib/e-puck2_main-processor/ChibiOS//os/rt/include/chqueues.h"
 729              		.file 27 "../lib/e-puck2_main-processor/ChibiOS//os/hal/ports/STM32/STM32F4xx/stm32_dma.h"
 730              		.file 28 "../lib/e-puck2_main-processor/ChibiOS//os/hal/include/hal_ioblock.h"
 731              		.file 29 "../lib/e-puck2_main-processor/ChibiOS//os/hal/ports/STM32/LLD/GPIOv2/pal_lld.h"
 732              		.file 30 "../lib/e-puck2_main-processor/ChibiOS//os/hal/include/adc.h"
 733              		.file 31 "../lib/e-puck2_main-processor/ChibiOS//os/hal/ports/STM32/STM32F4xx/adc_lld.h"
 734              		.file 32 "../lib/e-puck2_main-processor/ChibiOS//os/hal/include/can.h"
 735              		.file 33 "../lib/e-puck2_main-processor/ChibiOS//os/hal/ports/STM32/LLD/can_lld.h"
 736              		.file 34 "../lib/e-puck2_main-processor/ChibiOS//os/hal/include/dac.h"
 737              		.file 35 "../lib/e-puck2_main-processor/ChibiOS//os/hal/ports/STM32/LLD/DACv1/dac_lld.h"
 738              		.file 36 "../lib/e-puck2_main-processor/ChibiOS//os/hal/include/ext.h"
 739              		.file 37 "../lib/e-puck2_main-processor/ChibiOS//os/hal/ports/STM32/LLD/ext_lld.h"
 740              		.file 38 "../lib/e-puck2_main-processor/ChibiOS//os/hal/include/gpt.h"
 741              		.file 39 "../lib/e-puck2_main-processor/ChibiOS//os/hal/ports/STM32/LLD/TIMv1/gpt_lld.h"
 742              		.file 40 "../lib/e-puck2_main-processor/ChibiOS//os/hal/ports/STM32/LLD/TIMv1/stm32_tim.h"
 743              		.file 41 "../lib/e-puck2_main-processor/ChibiOS//os/hal/include/i2c.h"
 744              		.file 42 "../lib/e-puck2_main-processor/ChibiOS//os/hal/ports/STM32/LLD/I2Cv1/i2c_lld.h"
 745              		.file 43 "../lib/e-puck2_main-processor/ChibiOS//os/hal/include/i2s.h"
 746              		.file 44 "../lib/e-puck2_main-processor/ChibiOS//os/hal/ports/STM32/LLD/SPIv1/i2s_lld.h"
 747              		.file 45 "../lib/e-puck2_main-processor/ChibiOS//os/hal/include/pwm.h"
 748              		.file 46 "../lib/e-puck2_main-processor/ChibiOS//os/hal/ports/STM32/LLD/TIMv1/pwm_lld.h"
 749              		.file 47 "../lib/e-puck2_main-processor/ChibiOS//os/hal/include/serial.h"
 750              		.file 48 "../lib/e-puck2_main-processor/ChibiOS//os/hal/ports/STM32/LLD/USARTv1/serial_lld.h"
 751              		.file 49 "../lib/e-puck2_main-processor/ChibiOS//os/hal/include/sdc.h"
 752              		.file 50 "../lib/e-puck2_main-processor/ChibiOS//os/hal/ports/STM32/LLD/sdc_lld.h"
 753              		.file 51 "../lib/e-puck2_main-processor/ChibiOS//os/hal/include/spi.h"
 754              		.file 52 "../lib/e-puck2_main-processor/ChibiOS//os/hal/ports/STM32/LLD/SPIv1/spi_lld.h"
 755              		.file 53 "../lib/e-puck2_main-processor/ChibiOS//os/hal/include/usb.h"
 756              		.file 54 "../lib/e-puck2_main-processor/ChibiOS//os/hal/ports/STM32/LLD/OTGv1/usb_lld.h"
 757              		.file 55 "../lib/e-puck2_main-processor/ChibiOS//os/hal/ports/STM32/LLD/OTGv1/stm32_otg.h"
 758              		.file 56 "../lib/e-puck2_main-processor/ChibiOS//os/hal/include/serial_usb.h"
 759              		.file 57 "../lib/e-puck2_main-processor/ChibiOS//os/various/shell.h"
 760              		.file 58 "../lib/e-puck2_main-processor/aseba/common/types.h"
 761              		.file 59 "../lib/e-puck2_main-processor/aseba/vm/vm.h"
 762              		.file 60 "../lib/e-puck2_main-processor/src/parameter/parameter.h"
 763              		.file 61 "../lib/e-puck2_main-processor/src/aseba_vm/aseba_node.h"
 764              		.file 62 "../lib/e-puck2_main-processor/aseba/vm/natives.h"
 765              		.file 63 "../lib/e-puck2_main-processor/src/sensors/mpu9250.h"
 766              		.file 64 "../lib/e-puck2_main-processor/src/leds.h"
 767              		.file 65 "../lib/e-puck2_main-processor/src/aseba_vm/skel_user.h"
 768              		.file 66 "../lib/e-puck2_main-processor/src/exti.h"
 769              		.file 67 "/Applications/Eclipse_e-puck2.app/Contents/Eclipse_e-puck2/Tools/gcc-arm-none-eabi-7-201
 770              		.file 68 "../lib/e-puck2_main-processor/src/msgbus/messagebus.h"
 771              		.file 69 "./main.h"
 772              		.file 70 "../lib/e-puck2_main-processor/src/usbcfg.h"
 773              		.file 71 "../lib/e-puck2_main-processor/ChibiOS//os/rt/include/chsys.h"
 774              		.file 72 "../lib/e-puck2_main-processor/src/config_flash_storage.h"
 775              		.file 73 "../lib/e-puck2_main-processor/ChibiOS//os/hal/include/hal.h"
 776              		.file 74 "../lib/e-puck2_main-processor/src/memory_protection.h"
 777              		.file 75 "../lib/e-puck2_main-processor/src/camera/po8030.h"
 778              		.file 76 "../lib/e-puck2_main-processor/src/motors.h"
 779              		.file 77 "../lib/e-puck2_main-processor/src/sensors/proximity.h"
 780              		.file 78 "../lib/e-puck2_main-processor/src/sensors/battery_level.h"
 781              		.file 79 "../lib/e-puck2_main-processor/src/audio/audio_thread.h"
 782              		.file 80 "../lib/e-puck2_main-processor/src/sensors/imu.h"
ARM GAS  /var/folders/18/7qft4_0j4_z7kpvgb54b529c0000gn/T//cc4Wf93u.s 			page 15


 783              		.file 81 "../lib/e-puck2_main-processor/src/ir_remote.h"
 784              		.file 82 "../lib/e-puck2_main-processor/src/spi_comm.h"
 785              		.file 83 "../lib/e-puck2_main-processor/src/sensors/VL53L0X/VL53L0X.h"
 786              		.file 84 "../lib/e-puck2_main-processor/src/audio/microphone.h"
 787              		.file 85 "../lib/e-puck2_main-processor/src/sdio.h"
 788              		.file 86 "../lib/e-puck2_main-processor/src/audio/play_melody.h"
 789              		.file 87 "../lib/e-puck2_main-processor/src/audio/play_sound_file.h"
 790              		.file 88 "../lib/e-puck2_main-processor/src/aseba_vm/aseba_can_interface.h"
 791              		.file 89 "../lib/e-puck2_main-processor/ChibiOS//os/rt/include/chthreads.h"